; Function Attrs: mustprogress nounwind uwtable
define void @_ZN7rocksdb15BlockBasedTableD2Ev(ptr nocapture noundef nonnull align 8 dereferenceable(24) %this) unnamed_addr #0 align 2 {
entry:
  store ptr getelementptr inbounds ({ [20 x ptr] }, ptr @_ZTVN7rocksdb15BlockBasedTableE, i64 0, i32 0, i64 2), ptr %this, align 8
  %rep_ = getelementptr inbounds i8, ptr %this, i64 8
  %0 = load ptr, ptr %rep_, align 8
  %isnull = icmp eq ptr %0, null
  br i1 %isnull, label %delete.end, label %delete.notnull

delete.notnull:                                   ; preds = %entry
  tail call void @_ZN7rocksdb15BlockBasedTable3RepD2Ev(ptr noundef nonnull align 8 dereferenceable(672) %0) #33
  tail call void @_ZdlPv(ptr noundef nonnull %0) #30
  br label %delete.end

delete.end:                                       ; preds = %delete.notnull, %entry
  ret void
}